(i__main__
lib
p0
(dp1
S'code'
p2
I123
sS'name'
p3
S'sandeep tiwari'
p4
sS'bookname'
p5
S'physics'
p6
sS'bname'
p7
S'Physics'
p8
sS'act'
p9
I0
sS'date'
p10
F1578246622.826259
sb.(i__main__
lib
p0
(dp1
S'code'
p2
I125
sS'name'
p3
S'Pihu'
p4
sS'bookname'
p5
S'math'
p6
sS'bname'
p7
S'math'
p8
sS'act'
p9
I0
sS'date'
p10
F1578248636.476075
sb.