(i__main__
lib
p0
(dp1
S'bname'
p2
S'Physics'
p3
sS'code'
p4
I123
sS'act'
p5
I0
sb.(i__main__
lib
p0
(dp1
S'bname'
p2
S'chemistry'
p3
sS'code'
p4
I124
sS'act'
p5
I0
sb.(i__main__
lib
p0
(dp1
S'bname'
p2
S'math'
p3
sS'code'
p4
I125
sS'act'
p5
I0
sb.